Certificate:
    Data:
        Version: 3 (0x2)
        Serial Number: 13427935562325996536 (0xba599c3feb46b3f8)
    Signature Algorithm: sha256WithRSAEncryption
        Issuer: C=US, ST=CA, L=San Mateo, O=Alpaca, OU=R&D, CN=localhost
        Validity
            Not Before: May  3 00:45:44 2017 GMT
            Not After : Jun  2 00:45:44 2017 GMT
        Subject: C=US, ST=CA, L=San Mateo, O=Alpaca, OU=R&D, CN=localhost
        Subject Public Key Info:
            Public Key Algorithm: rsaEncryption
                Public-Key: (2048 bit)
                Modulus:
                    00:cd:bc:f7:60:f4:c2:82:62:de:21:76:31:95:d2:
                    60:77:59:e9:de:ef:d1:b2:49:6c:2c:d2:fc:c4:ea:
                    3b:24:6d:ab:d9:10:07:64:1a:d7:f2:44:51:f4:cf:
                    f8:7f:31:3a:e3:2f:d9:7c:6c:ce:d9:db:30:c1:f5:
                    b9:be:ee:4d:b0:76:6f:3f:bc:94:7f:c5:47:d4:4f:
                    72:f9:cf:64:f5:da:a0:1c:84:1c:6b:bd:5f:ec:f6:
                    07:86:42:39:ef:da:a1:72:96:02:7a:01:3f:1e:d1:
                    92:e4:ed:0b:98:c8:f9:0a:0e:fa:02:09:f9:fd:43:
                    c7:3a:0d:75:2e:5f:52:0d:41:b0:6b:8a:df:84:5b:
                    9f:40:b3:62:74:91:14:db:b1:9b:45:a0:88:44:86:
                    75:f5:bf:3f:82:db:39:eb:da:7f:1f:f7:bf:b1:bc:
                    b5:e2:ff:9e:bb:bd:bc:e3:e2:b4:a9:ac:c1:0f:92:
                    66:0e:f1:15:0e:ed:5b:c1:0f:b7:08:b2:ca:eb:a6:
                    d1:5e:b3:54:3e:42:c6:b2:86:fb:d6:e6:42:d7:4c:
                    3b:33:15:4a:ea:90:51:3a:ef:4f:9d:8e:2d:9d:fa:
                    2b:6f:89:44:ec:32:ad:6d:9d:d1:61:5b:b4:08:6b:
                    8e:c5:19:83:65:a0:b2:0e:8a:b3:38:a4:8f:9b:48:
                    01:97
                Exponent: 65537 (0x10001)
        X509v3 extensions:
            X509v3 Subject Key Identifier: 
                7D:D8:85:5D:41:3A:84:B5:2C:91:6B:5F:0B:3D:90:1B:0F:0A:18:F6
            X509v3 Authority Key Identifier: 
                keyid:7D:D8:85:5D:41:3A:84:B5:2C:91:6B:5F:0B:3D:90:1B:0F:0A:18:F6

            X509v3 Basic Constraints: 
                CA:TRUE
    Signature Algorithm: sha256WithRSAEncryption
         a0:ca:58:00:68:c9:ba:dc:8f:7c:e7:cd:92:76:e9:2b:6f:71:
         86:22:a0:c3:96:f9:68:59:de:57:ec:86:6c:a2:3b:e5:c4:62:
         51:6d:9a:de:15:9c:e0:ac:4b:04:ab:ad:9f:4f:dc:55:75:b9:
         e7:aa:c5:d5:bd:67:ce:2f:09:11:ad:f9:65:48:27:db:aa:bb:
         f9:7d:e3:cf:11:2c:11:16:2c:76:de:ef:36:96:9b:2b:cf:ed:
         5a:40:2c:bb:94:16:62:6d:d2:53:b7:b9:f3:c9:f5:09:63:24:
         cc:70:9f:ca:be:b2:06:12:84:df:9b:35:1a:8d:8d:be:de:56:
         c5:54:92:69:5c:8d:34:f8:df:d6:bd:bf:ae:f3:07:d8:b7:f6:
         ab:dc:33:7d:bc:bc:84:55:f7:fa:45:1f:f0:80:69:63:78:06:
         e5:1f:55:26:dc:f8:1c:87:e3:6f:5b:90:5d:d2:cb:13:ec:3b:
         45:d1:bc:a4:c7:7a:d6:e2:5a:6e:93:73:b7:0d:c8:4b:b3:ec:
         54:01:3d:ff:a0:6c:27:c1:cc:1a:ea:db:a1:a0:ea:9e:16:b8:
         27:4e:c6:85:13:52:3b:b1:61:bd:2d:b5:ff:41:61:3e:3b:2d:
         ca:a3:8f:9a:4d:87:6e:bc:94:6f:0a:da:96:9a:70:74:6f:43:
         1f:82:08:b6
-----BEGIN CERTIFICATE-----
MIIDlTCCAn2gAwIBAgIJALpZnD/rRrP4MA0GCSqGSIb3DQEBCwUAMGExCzAJBgNV
BAYTAlVTMQswCQYDVQQIDAJDQTESMBAGA1UEBwwJU2FuIE1hdGVvMQ8wDQYDVQQK
DAZBbHBhY2ExDDAKBgNVBAsMA1ImRDESMBAGA1UEAwwJbG9jYWxob3N0MB4XDTE3
MDUwMzAwNDU0NFoXDTE3MDYwMjAwNDU0NFowYTELMAkGA1UEBhMCVVMxCzAJBgNV
BAgMAkNBMRIwEAYDVQQHDAlTYW4gTWF0ZW8xDzANBgNVBAoMBkFscGFjYTEMMAoG
A1UECwwDUiZEMRIwEAYDVQQDDAlsb2NhbGhvc3QwggEiMA0GCSqGSIb3DQEBAQUA
A4IBDwAwggEKAoIBAQDNvPdg9MKCYt4hdjGV0mB3Wene79GySWws0vzE6jskbavZ
EAdkGtfyRFH0z/h/MTrjL9l8bM7Z2zDB9bm+7k2wdm8/vJR/xUfUT3L5z2T12qAc
hBxrvV/s9geGQjnv2qFylgJ6AT8e0ZLk7QuYyPkKDvoCCfn9Q8c6DXUuX1INQbBr
it+EW59As2J0kRTbsZtFoIhEhnX1vz+C2znr2n8f97+xvLXi/567vbzj4rSprMEP
kmYO8RUO7VvBD7cIssrrptFes1Q+QsayhvvW5kLXTDszFUrqkFE670+dji2d+itv
iUTsMq1tndFhW7QIa47FGYNloLIOirM4pI+bSAGXAgMBAAGjUDBOMB0GA1UdDgQW
BBR92IVdQTqEtSyRa18LPZAbDwoY9jAfBgNVHSMEGDAWgBR92IVdQTqEtSyRa18L
PZAbDwoY9jAMBgNVHRMEBTADAQH/MA0GCSqGSIb3DQEBCwUAA4IBAQCgylgAaMm6
3I98582Sdukrb3GGIqDDlvloWd5X7IZsojvlxGJRbZreFZzgrEsEq62fT9xVdbnn
qsXVvWfOLwkRrfllSCfbqrv5fePPESwRFix23u82lpsrz+1aQCy7lBZibdJTt7nz
yfUJYyTMcJ/KvrIGEoTfmzUajY2+3lbFVJJpXI00+N/Wvb+u8wfYt/ar3DN9vLyE
Vff6RR/wgGljeAblH1Um3Pgch+NvW5Bd0ssT7DtF0bykx3rW4lpuk3O3DchLs+xU
AT3/oGwnwcwa6tuhoOqeFrgnTsaFE1I7sWG9LbX/QWE+Oy3Ko4+aTYduvJRvCtqW
mnB0b0Mfggi2
-----END CERTIFICATE-----
